///////////////////////////////////////////////////////////////////////////////
//
// IAR C/C++ Compiler V9.20.1.2476 for 8051               22/Feb/2017  14:13:07
// Copyright 2004-2015 IAR Systems AB.
// Standalone license - IAR Embedded Workbench for 8051
//
//    Core               =  plain
//    Code model         =  banked
//    Data model         =  large
//    Calling convention =  xdata reentrant
//    Constant location  =  data_rom
//    Dptr setup         =  1,16
//                          
//    Source file        =  
//        D:\School\Jaar_3\WTWS\Projects\WirelessSensorNetworksPracticum\Projects\zstack\Samples\DemoApp\Source\DemoCoordinator.c
//    Command line       =  
//        -f
//        D:\School\Jaar_3\WTWS\Projects\WirelessSensorNetworksPracticum\Projects\zstack\Samples\DemoApp\CC2530DB\..\..\..\Tools\CC2530DB\f8wCoord.cfg
//        (-DCPU32MHZ -DROOT=__near_func -DMAC_CFG_APP_PENDING_QUEUE=TRUE
//        -DMAC_CFG_TX_DATA_MAX=5 -DMAC_CFG_TX_MAX=8 -DMAC_CFG_RX_MAX=5
//        -DZDO_COORDINATOR -DRTR_NWK) -f
//        D:\School\Jaar_3\WTWS\Projects\WirelessSensorNetworksPracticum\Projects\zstack\Samples\DemoApp\CC2530DB\..\..\..\Tools\CC2530DB\f8wConfig.cfg
//        (-DZIGBEEPRO -DSECURE=0 -DZG_SECURE_DYNAMIC=0 -DREFLECTOR
//        -DDEFAULT_CHANLIST=0x00100000 -DZDAPP_CONFIG_PAN_ID=0x0DAD
//        -DNWK_START_DELAY=100 -DEXTENDED_JOINING_RANDOM_MASK=0x007F
//        -DBEACON_REQUEST_DELAY=100 -DBEACON_REQ_DELAY_MASK=0x00FF
//        -DLINK_STATUS_JITTER_MASK=0x007F -DROUTE_EXPIRY_TIME=30
//        -DAPSC_ACK_WAIT_DURATION_POLLED=3000 -DNWK_INDIRECT_MSG_TIMEOUT=7
//        -DMAX_RREQ_ENTRIES=8 -DAPSC_MAX_FRAME_RETRIES=3
//        -DNWK_MAX_DATA_RETRIES=2 -DMAX_POLL_FAILURE_RETRIES=2 -DMAX_BCAST=9
//        -DAPS_MAX_GROUPS=16 -DMAX_RTG_ENTRIES=40 -DNWK_MAX_BINDING_ENTRIES=4
//        -DMAX_BINDING_CLUSTER_IDS=4 "-DDEFAULT_KEY={'H', 'O', 'G', 'E', 'S',
//        'C', 'H', 'O', 'O', 'L', 'U', 'T', 'R', 'E', 'C', 'H'}"
//        -DMAC_MAX_FRAME_SIZE=116 -DZDNWKMGR_MIN_TRANSMISSIONS=20
//        "-DCONST=const __code" -DGENERIC=__generic -DRFD_RCVC_ALWAYS_ON=FALSE
//        -DPOLL_RATE=1000 -DQUEUED_POLL_RATE=100 -DRESPONSE_POLL_RATE=100)
//        -DREJOIN_POLL_RATE=440
//        D:\School\Jaar_3\WTWS\Projects\WirelessSensorNetworksPracticum\Projects\zstack\Samples\DemoApp\Source\DemoCoordinator.c
//        -D HOLD_AUTO_START -D BUILD_ALL_DEVICES -D REFLECTOR -D NV_INIT -D
//        NV_RESTORE -D HAL_UART=TRUE -lC
//        D:\School\Jaar_3\WTWS\Projects\WirelessSensorNetworksPracticum\Projects\zstack\Samples\DemoApp\CC2530DB\CoordinatorEB\List\
//        -lA
//        D:\School\Jaar_3\WTWS\Projects\WirelessSensorNetworksPracticum\Projects\zstack\Samples\DemoApp\CC2530DB\CoordinatorEB\List\
//        --diag_suppress Pe001,Pa010,Pe1665 -o
//        D:\School\Jaar_3\WTWS\Projects\WirelessSensorNetworksPracticum\Projects\zstack\Samples\DemoApp\CC2530DB\CoordinatorEB\Obj\
//        -e --no_cse --no_unroll --no_inline --no_code_motion --no_tbaa
//        --debug --core=plain --dptr=16,1 --data_model=large
//        --code_model=banked --calling_convention=xdata_reentrant
//        --place_constants=data_rom --nr_virtual_regs 16 -I
//        D:\School\Jaar_3\WTWS\Projects\WirelessSensorNetworksPracticum\Projects\zstack\Samples\DemoApp\CC2530DB\
//        -I
//        D:\School\Jaar_3\WTWS\Projects\WirelessSensorNetworksPracticum\Projects\zstack\Samples\DemoApp\CC2530DB\..\Source\
//        -I
//        D:\School\Jaar_3\WTWS\Projects\WirelessSensorNetworksPracticum\Projects\zstack\Samples\DemoApp\CC2530DB\..\..\..\ZMain\TI2530DB\
//        -I
//        D:\School\Jaar_3\WTWS\Projects\WirelessSensorNetworksPracticum\Projects\zstack\Samples\DemoApp\CC2530DB\..\..\..\..\..\Components\hal\include\
//        -I
//        D:\School\Jaar_3\WTWS\Projects\WirelessSensorNetworksPracticum\Projects\zstack\Samples\DemoApp\CC2530DB\..\..\..\..\..\Components\hal\target\CC2530EB\
//        -I
//        D:\School\Jaar_3\WTWS\Projects\WirelessSensorNetworksPracticum\Projects\zstack\Samples\DemoApp\CC2530DB\..\..\..\..\..\Components\mac\include\
//        -I
//        D:\School\Jaar_3\WTWS\Projects\WirelessSensorNetworksPracticum\Projects\zstack\Samples\DemoApp\CC2530DB\..\..\..\..\..\Components\mac\high_level\
//        -I
//        D:\School\Jaar_3\WTWS\Projects\WirelessSensorNetworksPracticum\Projects\zstack\Samples\DemoApp\CC2530DB\..\..\..\..\..\Components\mac\low_level\srf04\
//        -I
//        D:\School\Jaar_3\WTWS\Projects\WirelessSensorNetworksPracticum\Projects\zstack\Samples\DemoApp\CC2530DB\..\..\..\..\..\Components\mac\low_level\srf04\single_chip\
//        -I
//        D:\School\Jaar_3\WTWS\Projects\WirelessSensorNetworksPracticum\Projects\zstack\Samples\DemoApp\CC2530DB\..\..\..\..\..\Components\mt\
//        -I
//        D:\School\Jaar_3\WTWS\Projects\WirelessSensorNetworksPracticum\Projects\zstack\Samples\DemoApp\CC2530DB\..\..\..\..\..\Components\osal\include\
//        -I
//        D:\School\Jaar_3\WTWS\Projects\WirelessSensorNetworksPracticum\Projects\zstack\Samples\DemoApp\CC2530DB\..\..\..\..\..\Components\services\saddr\
//        -I
//        D:\School\Jaar_3\WTWS\Projects\WirelessSensorNetworksPracticum\Projects\zstack\Samples\DemoApp\CC2530DB\..\..\..\..\..\Components\services\sdata\
//        -I
//        D:\School\Jaar_3\WTWS\Projects\WirelessSensorNetworksPracticum\Projects\zstack\Samples\DemoApp\CC2530DB\..\..\..\..\..\Components\stack\af\
//        -I
//        D:\School\Jaar_3\WTWS\Projects\WirelessSensorNetworksPracticum\Projects\zstack\Samples\DemoApp\CC2530DB\..\..\..\..\..\Components\stack\nwk\
//        -I
//        D:\School\Jaar_3\WTWS\Projects\WirelessSensorNetworksPracticum\Projects\zstack\Samples\DemoApp\CC2530DB\..\..\..\..\..\Components\stack\sapi\
//        -I
//        D:\School\Jaar_3\WTWS\Projects\WirelessSensorNetworksPracticum\Projects\zstack\Samples\DemoApp\CC2530DB\..\..\..\..\..\Components\stack\sec\
//        -I
//        D:\School\Jaar_3\WTWS\Projects\WirelessSensorNetworksPracticum\Projects\zstack\Samples\DemoApp\CC2530DB\..\..\..\..\..\Components\stack\sys\
//        -I
//        D:\School\Jaar_3\WTWS\Projects\WirelessSensorNetworksPracticum\Projects\zstack\Samples\DemoApp\CC2530DB\..\..\..\..\..\Components\stack\zdo\
//        -I
//        D:\School\Jaar_3\WTWS\Projects\WirelessSensorNetworksPracticum\Projects\zstack\Samples\DemoApp\CC2530DB\..\..\..\..\..\Components\zmac\
//        -I
//        D:\School\Jaar_3\WTWS\Projects\WirelessSensorNetworksPracticum\Projects\zstack\Samples\DemoApp\CC2530DB\..\..\..\..\..\Components\zmac\f8w\
//        -Ol --require_prototypes
//    List file          =  
//        D:\School\Jaar_3\WTWS\Projects\WirelessSensorNetworksPracticum\Projects\zstack\Samples\DemoApp\CC2530DB\CoordinatorEB\List\DemoCoordinator.s51
//
///////////////////////////////////////////////////////////////////////////////

        NAME DemoCoordinator

        RTMODEL "__SystemLibrary", "CLib"
        RTMODEL "__calling_convention", "xdata_reentrant"
        RTMODEL "__code_model", "banked"
        RTMODEL "__core", "plain"
        RTMODEL "__data_model", "large"
        RTMODEL "__dptr_size", "16"
        RTMODEL "__extended_stack", "disabled"
        RTMODEL "__location_for_constants", "data"
        RTMODEL "__number_of_dptrs", "1"
        RTMODEL "__rt_version", "1"

        RSEG DOVERLAY:DATA:NOROOT(0)
        RSEG IOVERLAY:IDATA:NOROOT(0)
        RSEG ISTACK:IDATA:NOROOT(0)
        RSEG PSTACK:XDATA:NOROOT(0)
        RSEG XSTACK:XDATA:NOROOT(0)

        EXTERN ?V0
        EXTERN ?V1
        EXTERN ?V2
        EXTERN ?V3
        EXTERN ?ALLOC_XSTACK8
        EXTERN ?BANKED_ENTER_XDATA
        EXTERN ?BANKED_LEAVE_XDATA
        EXTERN ?BDISPATCH
        EXTERN ?BRET
        EXTERN ?DEALLOC_XSTACK8
        EXTERN ?PUSH_XSTACK_I_FOUR
        EXTERN ?XSP
        EXTERN ?XSTACK_DISP0_8
        EXTERN __INIT_XDATA_I
        EXTERN __INIT_XDATA_Z

        FUNCTION `??calcFCS::?relay`,0203H
        FUNCTION `??sendGtwReport::?relay`,0203H
        FUNCTION `??sysPingReqRcvd::?relay`,0203H
        FUNCTION `??sysPingRsp::?relay`,0203H
        PUBLIC `??uartRxCB::?relay`
        FUNCTION `??uartRxCB::?relay`,0203H
        PUBLIC `??zb_AllowBindConfirm::?relay`
        FUNCTION `??zb_AllowBindConfirm::?relay`,0203H
        PUBLIC `??zb_BindConfirm::?relay`
        FUNCTION `??zb_BindConfirm::?relay`,0203H
        PUBLIC `??zb_FindDeviceConfirm::?relay`
        FUNCTION `??zb_FindDeviceConfirm::?relay`,0203H
        PUBLIC `??zb_HandleKeys::?relay`
        FUNCTION `??zb_HandleKeys::?relay`,0203H
        PUBLIC `??zb_HandleOsalEvent::?relay`
        FUNCTION `??zb_HandleOsalEvent::?relay`,0203H
        PUBLIC `??zb_ReceiveDataIndication::?relay`
        FUNCTION `??zb_ReceiveDataIndication::?relay`,0203H
        PUBLIC `??zb_SendDataConfirm::?relay`
        FUNCTION `??zb_SendDataConfirm::?relay`,0203H
        PUBLIC `??zb_StartConfirm::?relay`
        FUNCTION `??zb_StartConfirm::?relay`,0203H
        PUBWEAK P0DIR
        PUBWEAK P0INP
        PUBWEAK P0SEL
        PUBWEAK P1DIR
        PUBWEAK P2INP
        PUBWEAK _A_P0
        PUBWEAK _A_P1
        FUNCTION calcFCS,0203H
        ARGFRAME XSTACK, 15, STACK
        ARGFRAME IOVERLAY, 0, STATIC
        ARGFRAME DOVERLAY, 0, STATIC
        LOCFRAME ISTACK, 2, STACK
        FUNCTION sendGtwReport,021203H
        ARGFRAME XSTACK, 9, STACK
        ARGFRAME IOVERLAY, 0, STATIC
        ARGFRAME DOVERLAY, 0, STATIC
        LOCFRAME ISTACK, 3, STACK
        LOCFRAME XSTACK, 15, STACK
        FUNCTION sysPingReqRcvd,021203H
        ARGFRAME XSTACK, 138, STACK
        ARGFRAME IOVERLAY, 0, STATIC
        ARGFRAME DOVERLAY, 0, STATIC
        LOCFRAME ISTACK, 2, STACK
        FUNCTION sysPingRsp,021203H
        ARGFRAME XSTACK, 0, STACK
        ARGFRAME IOVERLAY, 0, STATIC
        ARGFRAME DOVERLAY, 0, STATIC
        LOCFRAME ISTACK, 3, STACK
        LOCFRAME XSTACK, 7, STACK
        PUBLIC uartRxCB
        FUNCTION uartRxCB,0a1603H
        ARGFRAME XSTACK, 0, STACK
        LOCFRAME XSTACK, 138, STACK
        PUBLIC zb_AllowBindConfirm
        FUNCTION zb_AllowBindConfirm,0203H
        ARGFRAME XSTACK, 0, STACK
        PUBLIC zb_BindConfirm
        FUNCTION zb_BindConfirm,0203H
        ARGFRAME XSTACK, 0, STACK
        PUBLIC zb_FindDeviceConfirm
        FUNCTION zb_FindDeviceConfirm,0203H
        ARGFRAME XSTACK, 0, STACK
        PUBLIC zb_HandleKeys
        FUNCTION zb_HandleKeys,021203H
        ARGFRAME XSTACK, 0, STACK
        LOCFRAME XSTACK, 9, STACK
        PUBLIC zb_HandleOsalEvent
        FUNCTION zb_HandleOsalEvent,021203H
        ARGFRAME XSTACK, 0, STACK
        LOCFRAME XSTACK, 9, STACK
        PUBLIC zb_InCmdList
        PUBLIC zb_ReceiveDataIndication
        FUNCTION zb_ReceiveDataIndication,021203H
        ARGFRAME XSTACK, 4, STACK
        LOCFRAME XSTACK, 9, STACK
        PUBLIC zb_SendDataConfirm
        FUNCTION zb_SendDataConfirm,0203H
        ARGFRAME XSTACK, 0, STACK
        PUBLIC zb_SimpleDesc
        PUBLIC zb_StartConfirm
        FUNCTION zb_StartConfirm,0a1203H
        ARGFRAME XSTACK, 0, STACK
        LOCFRAME XSTACK, 16, STACK
        
          CFI Names cfiNames0
          CFI StackFrame CFA_SP SP IDATA
          CFI StackFrame CFA_PSP16 PSP16 XDATA
          CFI StackFrame CFA_XSP16 XSP16 XDATA
          CFI StaticOverlayFrame CFA_IOVERLAY IOVERLAY
          CFI StaticOverlayFrame CFA_DOVERLAY DOVERLAY
          CFI Resource `PSW.CY`:1, `B.BR0`:1, `B.BR1`:1, `B.BR2`:1, `B.BR3`:1
          CFI Resource `B.BR4`:1, `B.BR5`:1, `B.BR6`:1, `B.BR7`:1, `VB.BR8`:1
          CFI Resource `VB.BR9`:1, `VB.BR10`:1, `VB.BR11`:1, `VB.BR12`:1
          CFI Resource `VB.BR13`:1, `VB.BR14`:1, `VB.BR15`:1, VB:8, B:8, A:8
          CFI Resource PSW:8, DPL0:8, DPH0:8, R0:8, R1:8, R2:8, R3:8, R4:8, R5:8
          CFI Resource R6:8, R7:8, V0:8, V1:8, V2:8, V3:8, V4:8, V5:8, V6:8, V7:8
          CFI Resource V8:8, V9:8, V10:8, V11:8, V12:8, V13:8, V14:8, V15:8, SP:8
          CFI Resource PSPH:8, PSPL:8, PSP16:16, XSPH:8, XSPL:8, XSP16:16
          CFI VirtualResource ?RET:24
          CFI Resource ?BRET_EXT:8
          CFI VirtualResource ?RET_HIGH:8, ?RET_LOW:8
          CFI ResourceParts PSP16 PSPH, PSPL
          CFI ResourceParts XSP16 XSPH, XSPL
          CFI ResourceParts ?RET ?BRET_EXT, ?RET_HIGH, ?RET_LOW
          CFI EndNames cfiNames0
        
          CFI Common cfiCommon0 Using cfiNames0
          CFI CodeAlign 1
          CFI DataAlign -1
          CFI ReturnAddress ?RET CODE
          CFI CFA_DOVERLAY Used
          CFI CFA_IOVERLAY Used
          CFI CFA_SP SP+-3
          CFI CFA_PSP16 PSP16+0
          CFI CFA_XSP16 XSP16+0
          CFI `PSW.CY` SameValue
          CFI `B.BR0` SameValue
          CFI `B.BR1` SameValue
          CFI `B.BR2` SameValue
          CFI `B.BR3` SameValue
          CFI `B.BR4` SameValue
          CFI `B.BR5` SameValue
          CFI `B.BR6` SameValue
          CFI `B.BR7` SameValue
          CFI `VB.BR8` SameValue
          CFI `VB.BR9` SameValue
          CFI `VB.BR10` SameValue
          CFI `VB.BR11` SameValue
          CFI `VB.BR12` SameValue
          CFI `VB.BR13` SameValue
          CFI `VB.BR14` SameValue
          CFI `VB.BR15` SameValue
          CFI VB SameValue
          CFI B Undefined
          CFI A Undefined
          CFI PSW SameValue
          CFI DPL0 SameValue
          CFI DPH0 SameValue
          CFI R0 Undefined
          CFI R1 Undefined
          CFI R2 Undefined
          CFI R3 Undefined
          CFI R4 Undefined
          CFI R5 Undefined
          CFI R6 SameValue
          CFI R7 SameValue
          CFI V0 SameValue
          CFI V1 SameValue
          CFI V2 SameValue
          CFI V3 SameValue
          CFI V4 SameValue
          CFI V5 SameValue
          CFI V6 SameValue
          CFI V7 SameValue
          CFI V8 SameValue
          CFI V9 SameValue
          CFI V10 SameValue
          CFI V11 SameValue
          CFI V12 SameValue
          CFI V13 SameValue
          CFI V14 SameValue
          CFI V15 SameValue
          CFI PSPH Undefined
          CFI PSPL Undefined
          CFI XSPH Undefined
          CFI XSPL Undefined
          CFI ?RET Concat
          CFI ?BRET_EXT Frame(CFA_SP, 3)
          CFI ?RET_HIGH Frame(CFA_SP, 2)
          CFI ?RET_LOW Frame(CFA_SP, 1)
          CFI EndCommon cfiCommon0
        
HalLedBlink         SYMBOL "HalLedBlink"
`??HalLedBlink::?relay` SYMBOL "?relay", HalLedBlink
HalLedSet           SYMBOL "HalLedSet"
`??HalLedSet::?relay` SYMBOL "?relay", HalLedSet
HalUARTRead         SYMBOL "HalUARTRead"
`??HalUARTRead::?relay` SYMBOL "?relay", HalUARTRead
HalUARTWrite        SYMBOL "HalUARTWrite"
`??HalUARTWrite::?relay` SYMBOL "?relay", HalUARTWrite
initUart            SYMBOL "initUart"
`??initUart::?relay` SYMBOL "?relay", initUart
osal_start_timerEx  SYMBOL "osal_start_timerEx"
`??osal_start_timerEx::?relay` SYMBOL "?relay", osal_start_timerEx
zb_AllowBind        SYMBOL "zb_AllowBind"
`??zb_AllowBind::?relay` SYMBOL "?relay", zb_AllowBind
zb_StartRequest     SYMBOL "zb_StartRequest"
`??zb_StartRequest::?relay` SYMBOL "?relay", zb_StartRequest
uartRxCB            SYMBOL "uartRxCB"
`??uartRxCB::?relay` SYMBOL "?relay", uartRxCB
zb_AllowBindConfirm SYMBOL "zb_AllowBindConfirm"
`??zb_AllowBindConfirm::?relay` SYMBOL "?relay", zb_AllowBindConfirm
zb_BindConfirm      SYMBOL "zb_BindConfirm"
`??zb_BindConfirm::?relay` SYMBOL "?relay", zb_BindConfirm
zb_FindDeviceConfirm SYMBOL "zb_FindDeviceConfirm"
`??zb_FindDeviceConfirm::?relay` SYMBOL "?relay", zb_FindDeviceConfirm
zb_HandleKeys       SYMBOL "zb_HandleKeys"
`??zb_HandleKeys::?relay` SYMBOL "?relay", zb_HandleKeys
zb_HandleOsalEvent  SYMBOL "zb_HandleOsalEvent"
`??zb_HandleOsalEvent::?relay` SYMBOL "?relay", zb_HandleOsalEvent
zb_ReceiveDataIndication SYMBOL "zb_ReceiveDataIndication"
`??zb_ReceiveDataIndication::?relay` SYMBOL "?relay", zb_ReceiveDataIndication
zb_SendDataConfirm  SYMBOL "zb_SendDataConfirm"
`??zb_SendDataConfirm::?relay` SYMBOL "?relay", zb_SendDataConfirm
zb_StartConfirm     SYMBOL "zb_StartConfirm"
`??zb_StartConfirm::?relay` SYMBOL "?relay", zb_StartConfirm

        EXTERN `??HalLedBlink::?relay`
        FUNCTION `??HalLedBlink::?relay`,00H
        EXTERN `??HalLedSet::?relay`
        FUNCTION `??HalLedSet::?relay`,00H
        EXTERN `??HalUARTRead::?relay`
        FUNCTION `??HalUARTRead::?relay`,00H
        EXTERN `??HalUARTWrite::?relay`
        FUNCTION `??HalUARTWrite::?relay`,00H
        EXTERN `??initUart::?relay`
        FUNCTION `??initUart::?relay`,00H
        EXTERN `??osal_start_timerEx::?relay`
        FUNCTION `??osal_start_timerEx::?relay`,00H
        EXTERN `??zb_AllowBind::?relay`
        FUNCTION `??zb_AllowBind::?relay`,00H
        EXTERN `??zb_StartRequest::?relay`
        FUNCTION `??zb_StartRequest::?relay`,00H
        EXTERN HalLedBlink
        FUNCTION HalLedBlink,0202H
        ARGFRAME ISTACK, 0, STACK
        ARGFRAME PSTACK, 0, STACK
        ARGFRAME XSTACK, 9, STACK
        ARGFRAME IOVERLAY, 0, STATIC
        ARGFRAME DOVERLAY, 0, STATIC
        EXTERN HalLedSet
        FUNCTION HalLedSet,0202H
        ARGFRAME ISTACK, 0, STACK
        ARGFRAME PSTACK, 0, STACK
        ARGFRAME XSTACK, 12, STACK
        ARGFRAME IOVERLAY, 0, STATIC
        ARGFRAME DOVERLAY, 0, STATIC
        EXTERN HalUARTRead
        FUNCTION HalUARTRead,0202H
        ARGFRAME ISTACK, 0, STACK
        ARGFRAME PSTACK, 0, STACK
        ARGFRAME XSTACK, 138, STACK
        ARGFRAME IOVERLAY, 0, STATIC
        ARGFRAME DOVERLAY, 0, STATIC
        EXTERN HalUARTWrite
        FUNCTION HalUARTWrite,0202H
        ARGFRAME ISTACK, 2, STACK
        ARGFRAME PSTACK, 0, STACK
        ARGFRAME XSTACK, 15, STACK
        ARGFRAME IOVERLAY, 0, STATIC
        ARGFRAME DOVERLAY, 0, STATIC
        EXTERN initUart
        FUNCTION initUart,0202H
        ARGFRAME ISTACK, 0, STACK
        ARGFRAME PSTACK, 0, STACK
        ARGFRAME XSTACK, 9, STACK
        ARGFRAME IOVERLAY, 0, STATIC
        ARGFRAME DOVERLAY, 0, STATIC
        EXTERN osal_start_timerEx
        FUNCTION osal_start_timerEx,0202H
        ARGFRAME ISTACK, 0, STACK
        ARGFRAME PSTACK, 0, STACK
        ARGFRAME XSTACK, 16, STACK
        ARGFRAME IOVERLAY, 0, STATIC
        ARGFRAME DOVERLAY, 0, STATIC
        EXTERN sapi_TaskID
        EXTERN zb_AllowBind
        FUNCTION zb_AllowBind,0202H
        ARGFRAME ISTACK, 0, STACK
        ARGFRAME PSTACK, 0, STACK
        ARGFRAME XSTACK, 9, STACK
        ARGFRAME IOVERLAY, 0, STATIC
        ARGFRAME DOVERLAY, 0, STATIC
        EXTERN zb_StartRequest
        FUNCTION zb_StartRequest,0202H
        ARGFRAME ISTACK, 0, STACK
        ARGFRAME PSTACK, 0, STACK
        ARGFRAME XSTACK, 9, STACK
        ARGFRAME IOVERLAY, 0, STATIC
        ARGFRAME DOVERLAY, 0, STATIC

// D:\School\Jaar_3\WTWS\Projects\WirelessSensorNetworksPracticum\Projects\zstack\Samples\DemoApp\Source\DemoCoordinator.c
//    1 /**************************************************************************************************
//    2   Filename:       DemoCoordinator.c
//    3 
//    4   Description:    Coordinator application for the sensor demo utilizing Simple API.
//    5 
//    6                   The coordinator node functions as a gateway. The node accepts
//    7                   incoming reports from the sensor nodes (router and end device)
//    8                   and can send the reports via the UART to a PC tool.
//    9 
//   10 
//   11   Copyright 2009 Texas Instruments Incorporated. All rights reserved.
//   12 
//   13   IMPORTANT: Your use of this Software is limited to those specific rights
//   14   granted under the terms of a software license agreement between the user
//   15   who downloaded the software, his/her employer (which must be your employer)
//   16   and Texas Instruments Incorporated (the "License").  You may not use this
//   17   Software unless you agree to abide by the terms of the License. The License
//   18   limits your use, and you acknowledge, that the Software may not be modified,
//   19   copied or distributed unless embedded on a Texas Instruments microcontroller
//   20   or used solely and exclusively in conjunction with a Texas Instruments radio
//   21   frequency transceiver, which is integrated into your product.  Other than for
//   22   the foregoing purpose, you may not use, reproduce, copy, prepare derivative
//   23   works of, modify, distribute, perform, display or sell this Software and/or
//   24   its documentation for any purpose.
//   25 
//   26   YOU FURTHER ACKNOWLEDGE AND AGREE THAT THE SOFTWARE AND DOCUMENTATION ARE
//   27   PROVIDED “AS IS” WITHOUT WARRANTY OF ANY KIND, EITHER EXPRESS OR IMPLIED,
//   28   INCLUDING WITHOUT LIMITATION, ANY WARRANTY OF MERCHANTABILITY, TITLE,
//   29   NON-INFRINGEMENT AND FITNESS FOR A PARTICULAR PURPOSE. IN NO EVENT SHALL
//   30   TEXAS INSTRUMENTS OR ITS LICENSORS BE LIABLE OR OBLIGATED UNDER CONTRACT,
//   31   NEGLIGENCE, STRICT LIABILITY, CONTRIBUTION, BREACH OF WARRANTY, OR OTHER
//   32   LEGAL EQUITABLE THEORY ANY DIRECT OR INDIRECT DAMAGES OR EXPENSES
//   33   INCLUDING BUT NOT LIMITED TO ANY INCIDENTAL, SPECIAL, INDIRECT, PUNITIVE
//   34   OR CONSEQUENTIAL DAMAGES, LOST PROFITS OR LOST DATA, COST OF PROCUREMENT
//   35   OF SUBSTITUTE GOODS, TECHNOLOGY, SERVICES, OR ANY CLAIMS BY THIRD PARTIES
//   36   (INCLUDING BUT NOT LIMITED TO ANY DEFENSE THEREOF), OR OTHER SIMILAR COSTS.
//   37 
//   38   Should you have any questions regarding your right to use this Software,
//   39   contact Texas Instruments Incorporated at www.TI.com.
//   40 **************************************************************************************************/
//   41 
//   42 /******************************************************************************
//   43  * INCLUDES
//   44  */
//   45 #include "sapi.h"
//   46 #include "hal_key.h"

        ASEGN SFR_AN:DATA:NOROOT,080H
// union <unnamed> volatile __sfr _A_P0
_A_P0:
        DATA8
        DS 1

        ASEGN SFR_AN:DATA:NOROOT,08fH
// unsigned char volatile __sfr P0INP
P0INP:
        DATA8
        DS 1

        ASEGN SFR_AN:DATA:NOROOT,090H
// union <unnamed> volatile __sfr _A_P1
_A_P1:
        DATA8
        DS 1

        ASEGN SFR_AN:DATA:NOROOT,0f3H
// unsigned char volatile __sfr P0SEL
P0SEL:
        DATA8
        DS 1

        ASEGN SFR_AN:DATA:NOROOT,0f7H
// unsigned char volatile __sfr P2INP
P2INP:
        DATA8
        DS 1

        ASEGN SFR_AN:DATA:NOROOT,0fdH
// unsigned char volatile __sfr P0DIR
P0DIR:
        DATA8
        DS 1

        ASEGN SFR_AN:DATA:NOROOT,0feH
// unsigned char volatile __sfr P1DIR
P1DIR:
        DATA8
        DS 1
//   47 #include "hal_led.h"
//   48 #include "hal_uart.h"
//   49 #include "DemoApp.h"
//   50 
//   51 /******************************************************************************
//   52  * CONSTANTS
//   53  */
//   54 // General UART frame offsets
//   55 #define FRAME_SOF_OFFSET                    0
//   56 #define FRAME_LENGTH_OFFSET                 1
//   57 #define FRAME_CMD0_OFFSET                   2
//   58 #define FRAME_CMD1_OFFSET                   3
//   59 #define FRAME_DATA_OFFSET                   4
//   60 
//   61 // ZB_RECEIVE_DATA_INDICATION offsets
//   62 #define ZB_RECV_SRC_OFFSET                  0
//   63 #define ZB_RECV_CMD_OFFSET                  2
//   64 #define ZB_RECV_LEN_OFFSET                  4
//   65 #define ZB_RECV_DATA_OFFSET                 6
//   66 #define ZB_RECV_FCS_OFFSET                  8
//   67 
//   68 // ZB_RECEIVE_DATA_INDICATION frame length
//   69 #define ZB_RECV_LENGTH                      15
//   70 
//   71 // PING response frame length and offset
//   72 #define SYS_PING_RSP_LENGTH                 7
//   73 #define SYS_PING_CMD_OFFSET                 1
//   74 
//   75 // Stack Profile
//   76 #define ZIGBEE_2007                         0x0040
//   77 #define ZIGBEE_PRO_2007                     0x0041
//   78 
//   79 #ifdef ZIGBEEPRO
//   80 #define STACK_PROFILE                       ZIGBEE_PRO_2007
//   81 #else
//   82 #define STACK_PROFILE                       ZIGBEE_2007
//   83 #endif
//   84 
//   85 #define CPT_SOP                             0xFE
//   86 #define SYS_PING_REQUEST                    0x0021
//   87 #define SYS_PING_RESPONSE                   0x0161
//   88 #define ZB_RECEIVE_DATA_INDICATION          0x8746
//   89 
//   90 // Application osal event identifiers
//   91 #define MY_START_EVT                        0x0001
//   92 
//   93 // Port and pin for door limit switch
//   94 #define PORT_DOOR_LIMIT_SWITCH              0
//   95 #define PIN_DOOR_LIMIT_SWITCH               2
//   96 // Port and pin for green LED
//   97 #define PORT_GREEN_LED                      1
//   98 #define PIN_GREEN_LED                       2
//   99 // Port and pin for door control
//  100 #define PORT_DOOR_CONTROL                   0
//  101 #define PIN_DOOR_CONTROL                    6
//  102 
//  103 /******************************************************************************
//  104  * TYPEDEFS
//  105  */
//  106 typedef struct
//  107 {
//  108   uint16              source;
//  109   uint16              parent;
//  110   uint8               temp;
//  111   uint8               voltage;
//  112 } gtwData_t;
//  113 
//  114 /******************************************************************************
//  115  * LOCAL VARIABLES
//  116  */

        RSEG XDATA_Z:XDATA:NOROOT(0)
        DATA8
//  117 static uint8 appState =             APP_INIT;
appState:
        DS 1
        REQUIRE __INIT_XDATA_Z

        RSEG XDATA_I:XDATA:NOROOT(0)
//  118 static uint8 myStartRetryDelay =    10;          // milliseconds
myStartRetryDelay:
        DATA8
        DS 1
        REQUIRE `?<Initializer for myStartRetryDelay>`
        REQUIRE __INIT_XDATA_I

        RSEG XDATA_Z:XDATA:NOROOT(0)
        DATA8
//  119 static gtwData_t gtwData;
gtwData:
        DS 6
        REQUIRE __INIT_XDATA_Z
//  120 
//  121 /******************************************************************************
//  122  * LOCAL FUNCTIONS
//  123  */
//  124 static uint8 calcFCS(uint8 *pBuf, uint8 len);
//  125 static void sysPingReqRcvd(void);
//  126 static void sysPingRsp(void);
//  127 static void sendGtwReport(gtwData_t *gtwData);
//  128 
//  129 /******************************************************************************
//  130  * GLOBAL VARIABLES
//  131  */
//  132 // Inputs and Outputs for Collector device
//  133 #define NUM_OUT_CMD_COLLECTOR           0
//  134 #define NUM_IN_CMD_COLLECTOR            1
//  135 
//  136 // List of output and input commands for Collector device

        RSEG XDATA_ROM_C:CONST:REORDER:NOROOT(0)
        DATA16
//  137 const cId_t zb_InCmdList[NUM_IN_CMD_COLLECTOR] =
zb_InCmdList:
        DW 2
//  138 {
//  139   SENSOR_REPORT_CMD_ID,
//  140 };
//  141 
//  142 // Define SimpleDescriptor for Collector device

        RSEG XDATA_ROM_C:CONST:REORDER:NOROOT(0)
        DATA8
//  143 const SimpleDescriptionFormat_t zb_SimpleDesc =
zb_SimpleDesc:
        DB 2
        DATA16
        DW 3872
        DW 2
        DATA8
        DB 1
        DB 1
        DATA16
        DW zb_InCmdList
        DATA8
        DB 0
        DATA16
        DW 0H
//  144 {
//  145   MY_ENDPOINT_ID,             //  Endpoint
//  146   MY_PROFILE_ID,              //  Profile ID
//  147   DEV_ID_COLLECTOR,           //  Device ID
//  148   DEVICE_VERSION_COLLECTOR,   //  Device Version
//  149   0,                          //  Reserved
//  150   NUM_IN_CMD_COLLECTOR,       //  Number of Input Commands
//  151   (cId_t *) zb_InCmdList,     //  Input Command List
//  152   NUM_OUT_CMD_COLLECTOR,      //  Number of Output Commands
//  153   (cId_t *) NULL              //  Output Command List
//  154 };
//  155 
//  156 /******************************************************************************
//  157  * GLOBAL FUNCTIONS
//  158  */
//  159 
//  160 /******************************************************************************
//  161  * @fn          zb_HandleOsalEvent
//  162  *
//  163  * @brief       The zb_HandleOsalEvent function is called by the operating
//  164  *              system when a task event is set
//  165  *
//  166  * @param       event - Bitmask containing the events that have been set
//  167  *
//  168  * @return      none
//  169  */

        RSEG BANKED_CODE:CODE:NOROOT(0)
//  170 void zb_HandleOsalEvent( uint16 event )
zb_HandleOsalEvent:
          CFI Block cfiBlock0 Using cfiCommon0
          CFI Function zb_HandleOsalEvent
        CODE
//  171 {
        FUNCALL zb_HandleOsalEvent, initUart
        LOCFRAME ISTACK, 0, STACK
        LOCFRAME PSTACK, 0, STACK
        LOCFRAME XSTACK, 9, STACK
        LOCFRAME IOVERLAY, 0, STATIC
        LOCFRAME DOVERLAY, 0, STATIC
        ARGFRAME ISTACK, 0, STACK
        ARGFRAME PSTACK, 0, STACK
        ARGFRAME XSTACK, 9, STACK
        ARGFRAME IOVERLAY, 0, STATIC
        ARGFRAME DOVERLAY, 0, STATIC
        FUNCALL zb_HandleOsalEvent, HalLedBlink
        LOCFRAME ISTACK, 0, STACK
        LOCFRAME PSTACK, 0, STACK
        LOCFRAME XSTACK, 9, STACK
        LOCFRAME IOVERLAY, 0, STATIC
        LOCFRAME DOVERLAY, 0, STATIC
        ARGFRAME ISTACK, 0, STACK
        ARGFRAME PSTACK, 0, STACK
        ARGFRAME XSTACK, 9, STACK
        ARGFRAME IOVERLAY, 0, STATIC
        ARGFRAME DOVERLAY, 0, STATIC
        FUNCALL zb_HandleOsalEvent, HalLedSet
        LOCFRAME ISTACK, 0, STACK
        LOCFRAME PSTACK, 0, STACK
        LOCFRAME XSTACK, 9, STACK
        LOCFRAME IOVERLAY, 0, STATIC
        LOCFRAME DOVERLAY, 0, STATIC
        ARGFRAME ISTACK, 0, STACK
        ARGFRAME PSTACK, 0, STACK
        ARGFRAME XSTACK, 9, STACK
        ARGFRAME IOVERLAY, 0, STATIC
        ARGFRAME DOVERLAY, 0, STATIC
        FUNCALL zb_HandleOsalEvent, zb_StartRequest
        LOCFRAME ISTACK, 0, STACK
        LOCFRAME PSTACK, 0, STACK
        LOCFRAME XSTACK, 9, STACK
        LOCFRAME IOVERLAY, 0, STATIC
        LOCFRAME DOVERLAY, 0, STATIC
        ARGFRAME ISTACK, 0, STACK
        ARGFRAME PSTACK, 0, STACK
        ARGFRAME XSTACK, 9, STACK
        ARGFRAME IOVERLAY, 0, STATIC
        ARGFRAME DOVERLAY, 0, STATIC
        FUNCALL zb_HandleOsalEvent, zb_StartRequest
        LOCFRAME ISTACK, 0, STACK
        LOCFRAME PSTACK, 0, STACK
        LOCFRAME XSTACK, 9, STACK
        LOCFRAME IOVERLAY, 0, STATIC
        LOCFRAME DOVERLAY, 0, STATIC
        ARGFRAME ISTACK, 0, STACK
        ARGFRAME PSTACK, 0, STACK
        ARGFRAME XSTACK, 9, STACK
        ARGFRAME IOVERLAY, 0, STATIC
        ARGFRAME DOVERLAY, 0, STATIC
        MOV     A,#-0x9
        LCALL   ?BANKED_ENTER_XDATA
          CFI DPH0 load(1, XDATA, add(CFA_XSP16, literal(-1)))
          CFI DPL0 load(1, XDATA, add(CFA_XSP16, literal(-2)))
          CFI ?BRET_EXT load(1, XDATA, add(CFA_XSP16, literal(-3)))
          CFI ?RET_HIGH load(1, XDATA, add(CFA_XSP16, literal(-4)))
          CFI ?RET_LOW load(1, XDATA, add(CFA_XSP16, literal(-5)))
          CFI R7 load(1, XDATA, add(CFA_XSP16, literal(-6)))
          CFI V0 load(1, XDATA, add(CFA_XSP16, literal(-7)))
          CFI VB load(1, XDATA, add(CFA_XSP16, literal(-8)))
          CFI R6 load(1, XDATA, add(CFA_XSP16, literal(-9)))
          CFI CFA_SP SP+0
          CFI CFA_XSP16 add(XSP16, 9)
        ; Saved register size: 9
        ; Auto size: 0
        MOV     A,R2
        MOV     R6,A
        MOV     A,R3
        MOV     R7,A
//  172   if( event & SYS_EVENT_MSG )
//  173   {
//  174   }
//  175 
//  176   if( event & ZB_ENTRY_EVENT )
        MOV     A,R6
        ANL     A,#0x0
        MOV     R0,A
        MOV     A,R7
        ANL     A,#0x10
        MOV     R1,A
        MOV     A,R0
        ORL     A,R1
        JZ      ??zb_HandleOsalEvent_0
//  177   {
//  178     /* If we get this event, then we can initialise things */
//  179     
//  180     // Initialise UART
//  181     initUart(uartRxCB);
        ; Setup parameters for call to function initUart
        MOV     R2,#`??uartRxCB::?relay` & 0xff
        MOV     R3,#(`??uartRxCB::?relay` >> 8) & 0xff
        LCALL   `??initUart::?relay` ; Banked call to: initUart
//  182     
//  183     // Initialise the door limit switch as input and internal pull-up activated
//  184     MCU_IO_INPUT( PORT_DOOR_LIMIT_SWITCH, PIN_DOOR_LIMIT_SWITCH, MCU_IO_PULLUP );
        ANL     0xf3,#0xfb
        ANL     0xfd,#0xfb
        ANL     0x8f,#0xfb
        ANL     0xf7,#0xdf
//  185     // Initialise the green LED as output
//  186     MCU_IO_DIR_OUTPUT( PORT_GREEN_LED, PIN_GREEN_LED );
        ORL     0xfe,#0x4
//  187     // Initialise the door control as output
//  188     MCU_IO_DIR_OUTPUT( PORT_DOOR_CONTROL, PIN_DOOR_CONTROL );
        ORL     0xfd,#0x40
//  189 
//  190     // blind LED 1 to indicate starting/joining a network
//  191     HalLedBlink ( HAL_LED_1, 0, 50, 500 );
        ; Setup parameters for call to function HalLedBlink
        MOV     R4,#-0xc
        MOV     R5,#0x1
        MOV     R3,#0x32
        MOV     R2,#0x0
        MOV     R1,#0x1
        LCALL   `??HalLedBlink::?relay`; Banked call to: HalLedBlink
//  192     HalLedSet( HAL_LED_2, HAL_LED_MODE_OFF );
        ; Setup parameters for call to function HalLedSet
        MOV     R2,#0x0
        MOV     R1,#0x2
        LCALL   `??HalLedSet::?relay`; Banked call to: HalLedSet
        MOV     A,R1
//  193 
//  194     // Start the device
//  195     appState = APP_START;
        MOV     DPTR,#appState
        MOV     A,#0x1
        MOVX    @DPTR,A
//  196     zb_StartRequest();
        ; Setup parameters for call to function zb_StartRequest
        LCALL   `??zb_StartRequest::?relay`; Banked call to: zb_StartRequest
//  197   }
//  198 
//  199   if ( event & MY_START_EVT )
??zb_HandleOsalEvent_0:
        MOV     A,R6
        MOV     C,0xE0 /* A   */.0
        JNC     ??zb_HandleOsalEvent_1
//  200   {
//  201     zb_StartRequest();
        ; Setup parameters for call to function zb_StartRequest
        LCALL   `??zb_StartRequest::?relay`; Banked call to: zb_StartRequest
//  202   }
//  203 }
??zb_HandleOsalEvent_1:
        MOV     R7,#0x1
        LJMP    ?BANKED_LEAVE_XDATA
          CFI R6 SameValue
          CFI VB SameValue
          CFI V0 SameValue
          CFI R7 SameValue
          CFI ?RET_LOW Frame(CFA_SP, 1)
          CFI ?RET_HIGH Frame(CFA_SP, 2)
          CFI ?BRET_EXT Frame(CFA_SP, 3)
          CFI DPL0 SameValue
          CFI DPH0 SameValue
          CFI CFA_SP SP+-3
          CFI CFA_XSP16 XSP16+0
          CFI EndBlock cfiBlock0
        REQUIRE P0SEL
        REQUIRE P0DIR
        REQUIRE P0INP
        REQUIRE P2INP
        REQUIRE P1DIR
//  204 
//  205 /******************************************************************************
//  206  * @fn      zb_HandleKeys
//  207  *
//  208  * @brief   Handles all key events for this device.
//  209  *
//  210  * @param   shift - true if in shift/alt.
//  211  * @param   keys - bit field for key events. Valid entries:
//  212  *                 EVAL_SW4
//  213  *                 EVAL_SW3
//  214  *                 EVAL_SW2
//  215  *                 EVAL_SW1
//  216  *
//  217  * @return  none
//  218  */

        RSEG BANKED_CODE:CODE:NOROOT(0)
//  219 void zb_HandleKeys( uint8 shift, uint8 keys )
zb_HandleKeys:
          CFI Block cfiBlock1 Using cfiCommon0
          CFI Function zb_HandleKeys
        CODE
//  220 {
        FUNCALL zb_HandleKeys, zb_AllowBind
        LOCFRAME ISTACK, 0, STACK
        LOCFRAME PSTACK, 0, STACK
        LOCFRAME XSTACK, 9, STACK
        LOCFRAME IOVERLAY, 0, STATIC
        LOCFRAME DOVERLAY, 0, STATIC
        ARGFRAME ISTACK, 0, STACK
        ARGFRAME PSTACK, 0, STACK
        ARGFRAME XSTACK, 9, STACK
        ARGFRAME IOVERLAY, 0, STATIC
        ARGFRAME DOVERLAY, 0, STATIC
        FUNCALL zb_HandleKeys, HalLedSet
        LOCFRAME ISTACK, 0, STACK
        LOCFRAME PSTACK, 0, STACK
        LOCFRAME XSTACK, 9, STACK
        LOCFRAME IOVERLAY, 0, STATIC
        LOCFRAME DOVERLAY, 0, STATIC
        ARGFRAME ISTACK, 0, STACK
        ARGFRAME PSTACK, 0, STACK
        ARGFRAME XSTACK, 9, STACK
        ARGFRAME IOVERLAY, 0, STATIC
        ARGFRAME DOVERLAY, 0, STATIC
        FUNCALL zb_HandleKeys, zb_AllowBind
        LOCFRAME ISTACK, 0, STACK
        LOCFRAME PSTACK, 0, STACK
        LOCFRAME XSTACK, 9, STACK
        LOCFRAME IOVERLAY, 0, STATIC
        LOCFRAME DOVERLAY, 0, STATIC
        ARGFRAME ISTACK, 0, STACK
        ARGFRAME PSTACK, 0, STACK
        ARGFRAME XSTACK, 9, STACK
        ARGFRAME IOVERLAY, 0, STATIC
        ARGFRAME DOVERLAY, 0, STATIC
        FUNCALL zb_HandleKeys, HalLedSet
        LOCFRAME ISTACK, 0, STACK
        LOCFRAME PSTACK, 0, STACK
        LOCFRAME XSTACK, 9, STACK
        LOCFRAME IOVERLAY, 0, STATIC
        LOCFRAME DOVERLAY, 0, STATIC
        ARGFRAME ISTACK, 0, STACK
        ARGFRAME PSTACK, 0, STACK
        ARGFRAME XSTACK, 9, STACK
        ARGFRAME IOVERLAY, 0, STATIC
        ARGFRAME DOVERLAY, 0, STATIC
        MOV     A,#-0x9
        LCALL   ?BANKED_ENTER_XDATA
          CFI DPH0 load(1, XDATA, add(CFA_XSP16, literal(-1)))
          CFI DPL0 load(1, XDATA, add(CFA_XSP16, literal(-2)))
          CFI ?BRET_EXT load(1, XDATA, add(CFA_XSP16, literal(-3)))
          CFI ?RET_HIGH load(1, XDATA, add(CFA_XSP16, literal(-4)))
          CFI ?RET_LOW load(1, XDATA, add(CFA_XSP16, literal(-5)))
          CFI R7 load(1, XDATA, add(CFA_XSP16, literal(-6)))
          CFI V0 load(1, XDATA, add(CFA_XSP16, literal(-7)))
          CFI VB load(1, XDATA, add(CFA_XSP16, literal(-8)))
          CFI R6 load(1, XDATA, add(CFA_XSP16, literal(-9)))
          CFI CFA_SP SP+0
          CFI CFA_XSP16 add(XSP16, 9)
        ; Saved register size: 9
        ; Auto size: 0
        MOV     A,R2
        MOV     R6,A
//  221   static uint8 allowBind = FALSE;
//  222 
//  223   // shift is not used and keys HAL_KEY_SW_3 and HAL_KEY_SW_4 are not used, so 
//  224   // removed code
//  225   if ( keys & HAL_KEY_SW_1 )
        MOV     A,R6
        MOV     C,0xE0 /* A   */.0
        JNC     ??zb_HandleKeys_0
//  226   {
//  227     if ( appState == APP_RUN )
        MOV     DPTR,#appState
        MOVX    A,@DPTR
        XRL     A,#0x4
        JNZ     ??zb_HandleKeys_0
//  228     {
//  229       allowBind ^= 1;
        MOV     DPTR,#??allowBind
        MOVX    A,@DPTR
        XRL     A,#0x1
        MOVX    @DPTR,A
//  230       if ( allowBind )
        MOV     DPTR,#??allowBind
        MOVX    A,@DPTR
        JZ      ??zb_HandleKeys_1
//  231       {
//  232         // Turn ON Allow Bind mode infinitly
//  233         zb_AllowBind( 0xFF );
        ; Setup parameters for call to function zb_AllowBind
        MOV     R1,#-0x1
        LCALL   `??zb_AllowBind::?relay`; Banked call to: zb_AllowBind
//  234         HalLedSet( HAL_LED_2, HAL_LED_MODE_ON );
        ; Setup parameters for call to function HalLedSet
        MOV     R2,#0x1
        MOV     R1,#0x2
        LCALL   `??HalLedSet::?relay`; Banked call to: HalLedSet
        MOV     A,R1
        SJMP    ??zb_HandleKeys_0
//  235       }
//  236       else
//  237       {
//  238         // Turn OFF Allow Bind mode infinitly
//  239         zb_AllowBind( 0x00 );
??zb_HandleKeys_1:
        ; Setup parameters for call to function zb_AllowBind
        MOV     R1,#0x0
        LCALL   `??zb_AllowBind::?relay`; Banked call to: zb_AllowBind
//  240         HalLedSet( HAL_LED_2, HAL_LED_MODE_OFF );
        ; Setup parameters for call to function HalLedSet
        MOV     R2,#0x0
        MOV     R1,#0x2
        LCALL   `??HalLedSet::?relay`; Banked call to: HalLedSet
        MOV     A,R1
//  241       }
//  242     }
//  243   }
//  244   if ( keys & HAL_KEY_SW_2 )
??zb_HandleKeys_0:
        MOV     A,R6
        MOV     C,0xE0 /* A   */.1
        JNC     ??zb_HandleKeys_2
//  245   {
//  246     MCU_IO_GET( PORT_DOOR_LIMIT_SWITCH, PIN_DOOR_LIMIT_SWITCH );
        MOV     A,0x80
        MOV     R0,A
        MOV     R1,#0x0
        MOV     A,R0
        ANL     A,#0x4
        MOV     R0,A
        MOV     A,R1
        ANL     A,#0x0
        MOV     R1,A
//  247     MCU_IO_SET( PORT_GREEN_LED, PIN_GREEN_LED, MCU_IO_GET( PORT_DOOR_LIMIT_SWITCH, PIN_DOOR_LIMIT_SWITCH ) );
        MOV     A,0x80
        ANL     A,#0x4
        CLR     0x90.2
//  248     /*if ( appState == APP_RUN ) 
//  249     {
//  250       MCU_IO_SET_HIGH( 0, 5 );
//  251       
//  252       
//  253       HalLedSet( HAL_LED_1, HAL_LED_MODE_OFF );
//  254     }*/
//  255   }
//  256 }
??zb_HandleKeys_2:
        MOV     R7,#0x1
        LJMP    ?BANKED_LEAVE_XDATA
          CFI R6 SameValue
          CFI VB SameValue
          CFI V0 SameValue
          CFI R7 SameValue
          CFI ?RET_LOW Frame(CFA_SP, 1)
          CFI ?RET_HIGH Frame(CFA_SP, 2)
          CFI ?BRET_EXT Frame(CFA_SP, 3)
          CFI DPL0 SameValue
          CFI DPH0 SameValue
          CFI CFA_SP SP+-3
          CFI CFA_XSP16 XSP16+0
          CFI EndBlock cfiBlock1
        REQUIRE _A_P0
        REQUIRE _A_P1

        RSEG XDATA_Z:XDATA:NOROOT(0)
        DATA8
??allowBind:
        DS 1
        REQUIRE __INIT_XDATA_Z
//  257 
//  258 /******************************************************************************
//  259  * @fn          zb_StartConfirm
//  260  *
//  261  * @brief       The zb_StartConfirm callback is called by the ZigBee stack
//  262  *              after a start request operation completes
//  263  *
//  264  * @param       status - The status of the start operation.  Status of
//  265  *                       ZB_SUCCESS indicates the start operation completed
//  266  *                       successfully.  Else the status is an error code.
//  267  *
//  268  * @return      none
//  269  */

        RSEG BANKED_CODE:CODE:NOROOT(0)
//  270 void zb_StartConfirm( uint8 status )
zb_StartConfirm:
          CFI Block cfiBlock2 Using cfiCommon0
          CFI Function zb_StartConfirm
        CODE
//  271 {
        FUNCALL zb_StartConfirm, HalLedSet
        LOCFRAME ISTACK, 0, STACK
        LOCFRAME PSTACK, 0, STACK
        LOCFRAME XSTACK, 12, STACK
        LOCFRAME IOVERLAY, 0, STATIC
        LOCFRAME DOVERLAY, 0, STATIC
        ARGFRAME ISTACK, 0, STACK
        ARGFRAME PSTACK, 0, STACK
        ARGFRAME XSTACK, 12, STACK
        ARGFRAME IOVERLAY, 0, STATIC
        ARGFRAME DOVERLAY, 0, STATIC
        FUNCALL zb_StartConfirm, osal_start_timerEx
        LOCFRAME ISTACK, 0, STACK
        LOCFRAME PSTACK, 0, STACK
        LOCFRAME XSTACK, 16, STACK
        LOCFRAME IOVERLAY, 0, STATIC
        LOCFRAME DOVERLAY, 0, STATIC
        ARGFRAME ISTACK, 0, STACK
        ARGFRAME PSTACK, 0, STACK
        ARGFRAME XSTACK, 16, STACK
        ARGFRAME IOVERLAY, 0, STATIC
        ARGFRAME DOVERLAY, 0, STATIC
        REQUIRE ?V0
        REQUIRE ?V1
        REQUIRE ?V2
        REQUIRE ?V3
        MOV     A,#-0xc
        LCALL   ?BANKED_ENTER_XDATA
          CFI DPH0 load(1, XDATA, add(CFA_XSP16, literal(-1)))
          CFI DPL0 load(1, XDATA, add(CFA_XSP16, literal(-2)))
          CFI ?BRET_EXT load(1, XDATA, add(CFA_XSP16, literal(-3)))
          CFI ?RET_HIGH load(1, XDATA, add(CFA_XSP16, literal(-4)))
          CFI ?RET_LOW load(1, XDATA, add(CFA_XSP16, literal(-5)))
          CFI R7 load(1, XDATA, add(CFA_XSP16, literal(-6)))
          CFI V3 load(1, XDATA, add(CFA_XSP16, literal(-7)))
          CFI V2 load(1, XDATA, add(CFA_XSP16, literal(-8)))
          CFI V1 load(1, XDATA, add(CFA_XSP16, literal(-9)))
          CFI V0 load(1, XDATA, add(CFA_XSP16, literal(-10)))
          CFI VB load(1, XDATA, add(CFA_XSP16, literal(-11)))
          CFI R6 load(1, XDATA, add(CFA_XSP16, literal(-12)))
          CFI CFA_SP SP+0
          CFI CFA_XSP16 add(XSP16, 12)
        ; Saved register size: 12
        ; Auto size: 0
        MOV     A,R1
        MOV     R6,A
//  272   // If the device sucessfully started, change state to running
//  273   if ( status == ZB_SUCCESS )
        MOV     A,R6
        JNZ     ??zb_StartConfirm_0
//  274   {
//  275     // Set LED 1 to indicate that node is operational on the network
//  276     HalLedSet( HAL_LED_1, HAL_LED_MODE_ON );
        ; Setup parameters for call to function HalLedSet
        MOV     R2,#0x1
        MOV     R1,#0x1
        LCALL   `??HalLedSet::?relay`; Banked call to: HalLedSet
        MOV     A,R1
//  277 
//  278     // Change application state
//  279     appState = APP_RUN;
        MOV     DPTR,#appState
        MOV     A,#0x4
        MOVX    @DPTR,A
        SJMP    ??zb_StartConfirm_1
//  280   }
//  281   else
//  282   {
//  283     // Try again later with a delay
//  284     osal_start_timerEx( sapi_TaskID, MY_START_EVT, myStartRetryDelay );
??zb_StartConfirm_0:
        ; Setup parameters for call to function osal_start_timerEx
        MOV     DPTR,#myStartRetryDelay
        MOVX    A,@DPTR
        MOV     ?V0,A
        CLR     A
        MOV     ?V1,A
        MOV     ?V2,A
        MOV     ?V3,A
        MOV     R0,#?V0
        LCALL   ?PUSH_XSTACK_I_FOUR
          CFI CFA_XSP16 add(XSP16, 16)
        MOV     R2,#0x1
        MOV     R3,#0x0
        MOV     DPTR,#sapi_TaskID
        MOVX    A,@DPTR
        MOV     R1,A
        LCALL   `??osal_start_timerEx::?relay`; Banked call to: osal_start_timerEx
        MOV     A,#0x4
        LCALL   ?DEALLOC_XSTACK8
          CFI CFA_XSP16 add(XSP16, 12)
        MOV     A,R1
//  285   }
//  286 }
??zb_StartConfirm_1:
        MOV     R7,#0x4
        LJMP    ?BANKED_LEAVE_XDATA
          CFI R6 SameValue
          CFI VB SameValue
          CFI V0 SameValue
          CFI V1 SameValue
          CFI V2 SameValue
          CFI V3 SameValue
          CFI R7 SameValue
          CFI ?RET_LOW Frame(CFA_SP, 1)
          CFI ?RET_HIGH Frame(CFA_SP, 2)
          CFI ?BRET_EXT Frame(CFA_SP, 3)
          CFI DPL0 SameValue
          CFI DPH0 SameValue
          CFI CFA_SP SP+-3
          CFI CFA_XSP16 XSP16+0
          CFI EndBlock cfiBlock2
//  287 
//  288 /******************************************************************************
//  289  * @fn          zb_SendDataConfirm
//  290  *
//  291  * @brief       The zb_SendDataConfirm callback function is called by the
//  292  *              ZigBee stack after a send data operation completes
//  293  *
//  294  * @param       handle - The handle identifying the data transmission.
//  295  *              status - The status of the operation.
//  296  *
//  297  * @return      none
//  298  */

        RSEG BANKED_CODE:CODE:NOROOT(0)
//  299 void zb_SendDataConfirm( uint8 handle, uint8 status )
zb_SendDataConfirm:
          CFI Block cfiBlock3 Using cfiCommon0
          CFI Function zb_SendDataConfirm
        CODE
//  300 {
        ; Saved register size: 0
        ; Auto size: 0
//  301   (void)handle;
//  302   (void)status;
//  303 }
        LJMP    ?BRET
          CFI EndBlock cfiBlock3
//  304 
//  305 /******************************************************************************
//  306  * @fn          zb_BindConfirm
//  307  *
//  308  * @brief       The zb_BindConfirm callback is called by the ZigBee stack
//  309  *              after a bind operation completes.
//  310  *
//  311  * @param       commandId - The command ID of the binding being confirmed.
//  312  *              status - The status of the bind operation.
//  313  *
//  314  * @return      none
//  315  */

        RSEG BANKED_CODE:CODE:NOROOT(0)
//  316 void zb_BindConfirm( uint16 commandId, uint8 status )
zb_BindConfirm:
          CFI Block cfiBlock4 Using cfiCommon0
          CFI Function zb_BindConfirm
        CODE
//  317 {
        ; Saved register size: 0
        ; Auto size: 0
//  318   (void)commandId;
//  319   (void)status;
//  320 }
        LJMP    ?BRET
          CFI EndBlock cfiBlock4
//  321 
//  322 /******************************************************************************
//  323  * @fn          zb_AllowBindConfirm
//  324  *
//  325  * @brief       Indicates when another device attempted to bind to this device
//  326  *
//  327  * @param
//  328  *
//  329  * @return      none
//  330  */

        RSEG BANKED_CODE:CODE:NOROOT(0)
//  331 void zb_AllowBindConfirm( uint16 source )
zb_AllowBindConfirm:
          CFI Block cfiBlock5 Using cfiCommon0
          CFI Function zb_AllowBindConfirm
        CODE
//  332 {
        ; Saved register size: 0
        ; Auto size: 0
//  333   (void)source;
//  334 }
        LJMP    ?BRET
          CFI EndBlock cfiBlock5
//  335 
//  336 /******************************************************************************
//  337  * @fn          zb_FindDeviceConfirm
//  338  *
//  339  * @brief       The zb_FindDeviceConfirm callback function is called by the
//  340  *              ZigBee stack when a find device operation completes.
//  341  *
//  342  * @param       searchType - The type of search that was performed.
//  343  *              searchKey - Value that the search was executed on.
//  344  *              result - The result of the search.
//  345  *
//  346  * @return      none
//  347  */

        RSEG BANKED_CODE:CODE:NOROOT(0)
//  348 void zb_FindDeviceConfirm( uint8 searchType, uint8 *searchKey, uint8 *result )
zb_FindDeviceConfirm:
          CFI Block cfiBlock6 Using cfiCommon0
          CFI Function zb_FindDeviceConfirm
        CODE
//  349 {
        ; Saved register size: 0
        ; Auto size: 0
//  350   (void)searchType;
//  351   (void)searchKey;
//  352   (void)result;
//  353 }
        LJMP    ?BRET
          CFI EndBlock cfiBlock6
//  354 
//  355 /******************************************************************************
//  356  * @fn          zb_ReceiveDataIndication
//  357  *
//  358  * @brief       The zb_ReceiveDataIndication callback function is called
//  359  *              asynchronously by the ZigBee stack to notify the application
//  360  *              when data is received from a peer device.
//  361  *
//  362  * @param       source - The short address of the peer device that sent the data
//  363  *              command - The commandId associated with the data
//  364  *              len - The number of bytes in the pData parameter
//  365  *              pData - The data sent by the peer device
//  366  *
//  367  * @return      none
//  368  */

        RSEG BANKED_CODE:CODE:NOROOT(0)
//  369 void zb_ReceiveDataIndication( uint16 source, uint16 command, uint16 len, uint8 *pData  )
zb_ReceiveDataIndication:
          CFI Block cfiBlock7 Using cfiCommon0
          CFI Function zb_ReceiveDataIndication
        CODE
//  370 {
        FUNCALL zb_ReceiveDataIndication, HalLedSet
        LOCFRAME ISTACK, 0, STACK
        LOCFRAME PSTACK, 0, STACK
        LOCFRAME XSTACK, 9, STACK
        LOCFRAME IOVERLAY, 0, STATIC
        LOCFRAME DOVERLAY, 0, STATIC
        ARGFRAME ISTACK, 0, STACK
        ARGFRAME PSTACK, 0, STACK
        ARGFRAME XSTACK, 9, STACK
        ARGFRAME IOVERLAY, 0, STATIC
        ARGFRAME DOVERLAY, 0, STATIC
        FUNCALL zb_ReceiveDataIndication, sendGtwReport
        LOCFRAME ISTACK, 0, STACK
        LOCFRAME PSTACK, 0, STACK
        LOCFRAME XSTACK, 9, STACK
        LOCFRAME IOVERLAY, 0, STATIC
        LOCFRAME DOVERLAY, 0, STATIC
        ARGFRAME ISTACK, 0, STACK
        ARGFRAME PSTACK, 0, STACK
        ARGFRAME XSTACK, 9, STACK
        ARGFRAME IOVERLAY, 0, STATIC
        ARGFRAME DOVERLAY, 0, STATIC
        MOV     A,#-0x9
        LCALL   ?BANKED_ENTER_XDATA
          CFI DPH0 load(1, XDATA, add(CFA_XSP16, literal(-1)))
          CFI DPL0 load(1, XDATA, add(CFA_XSP16, literal(-2)))
          CFI ?BRET_EXT load(1, XDATA, add(CFA_XSP16, literal(-3)))
          CFI ?RET_HIGH load(1, XDATA, add(CFA_XSP16, literal(-4)))
          CFI ?RET_LOW load(1, XDATA, add(CFA_XSP16, literal(-5)))
          CFI R7 load(1, XDATA, add(CFA_XSP16, literal(-6)))
          CFI V0 load(1, XDATA, add(CFA_XSP16, literal(-7)))
          CFI VB load(1, XDATA, add(CFA_XSP16, literal(-8)))
          CFI R6 load(1, XDATA, add(CFA_XSP16, literal(-9)))
          CFI CFA_SP SP+0
          CFI CFA_XSP16 add(XSP16, 9)
        ; Saved register size: 9
        ; Auto size: 0
        MOV     A,#0xb
        LCALL   ?XSTACK_DISP0_8
        MOVX    A,@DPTR
        MOV     R0,A
        INC     DPTR
        MOVX    A,@DPTR
        MOV     R1,A
//  371   (void)command;
//  372   (void)len;
//  373 
//  374   gtwData.parent = BUILD_UINT16(pData[SENSOR_PARENT_OFFSET+1], pData[SENSOR_PARENT_OFFSET]);
        MOV     DPL,R0
        MOV     DPH,R1
        INC     DPTR
        INC     DPTR
        INC     DPTR
        MOVX    A,@DPTR
        MOV     R6,A
        MOV     R7,#0x0
        MOV     DPL,R0
        MOV     DPH,R1
        INC     DPTR
        INC     DPTR
        MOVX    A,@DPTR
        MOV     R4,A
        MOV     R5,#0x0
        CLR     A
        XCH     A,R4
        MOV     R5,A
        MOV     A,R6
        ADD     A,R4
        MOV     R4,A
        MOV     A,R7
        ADDC    A,R5
        MOV     R5,A
        MOV     DPTR,#gtwData + 2
        MOV     A,R4
        MOVX    @DPTR,A
        INC     DPTR
        MOV     A,R5
        MOVX    @DPTR,A
//  375   gtwData.source = source;
        MOV     DPTR,#gtwData
        MOV     A,R2
        MOVX    @DPTR,A
        INC     DPTR
        MOV     A,R3
        MOVX    @DPTR,A
//  376   gtwData.temp = *pData;
        MOV     DPL,R0
        MOV     DPH,R1
        MOVX    A,@DPTR
        MOV     DPTR,#gtwData + 4
        MOVX    @DPTR,A
//  377   gtwData.voltage = *(pData+SENSOR_VOLTAGE_OFFSET);
        MOV     DPL,R0
        MOV     DPH,R1
        INC     DPTR
        MOVX    A,@DPTR
        MOV     DPTR,#gtwData + 5
        MOVX    @DPTR,A
//  378 
//  379   // Flash LED 2 once to indicate data reception
//  380   HalLedSet ( HAL_LED_2, HAL_LED_MODE_FLASH );
        ; Setup parameters for call to function HalLedSet
        MOV     R2,#0x4
        MOV     R1,#0x2
        LCALL   `??HalLedSet::?relay`; Banked call to: HalLedSet
        MOV     A,R1
//  381 
//  382   // Send gateway report
//  383   sendGtwReport(&gtwData);
        ; Setup parameters for call to function sendGtwReport
        MOV     R2,#gtwData & 0xff
        MOV     R3,#(gtwData >> 8) & 0xff
        LCALL   `??sendGtwReport::?relay`; Banked call to: sendGtwReport
//  384 }
        MOV     R7,#0x1
        LJMP    ?BANKED_LEAVE_XDATA
          CFI R6 SameValue
          CFI VB SameValue
          CFI V0 SameValue
          CFI R7 SameValue
          CFI ?RET_LOW Frame(CFA_SP, 1)
          CFI ?RET_HIGH Frame(CFA_SP, 2)
          CFI ?BRET_EXT Frame(CFA_SP, 3)
          CFI DPL0 SameValue
          CFI DPH0 SameValue
          CFI CFA_SP SP+-3
          CFI CFA_XSP16 XSP16+0
          CFI EndBlock cfiBlock7
//  385 
//  386 /******************************************************************************
//  387  * @fn          uartRxCB
//  388  *
//  389  * @brief       Callback function for UART
//  390  *
//  391  * @param       port - UART port
//  392  *              event - UART event that caused callback
//  393  *
//  394  * @return      none
//  395  */

        RSEG BANKED_CODE:CODE:NOROOT(0)
//  396 void uartRxCB( uint8 port, uint8 event )
uartRxCB:
          CFI Block cfiBlock8 Using cfiCommon0
          CFI Function uartRxCB
        CODE
//  397 {
        FUNCALL uartRxCB, HalUARTRead
        LOCFRAME ISTACK, 0, STACK
        LOCFRAME PSTACK, 0, STACK
        LOCFRAME XSTACK, 138, STACK
        LOCFRAME IOVERLAY, 0, STATIC
        LOCFRAME DOVERLAY, 0, STATIC
        ARGFRAME ISTACK, 0, STACK
        ARGFRAME PSTACK, 0, STACK
        ARGFRAME XSTACK, 138, STACK
        ARGFRAME IOVERLAY, 0, STATIC
        ARGFRAME DOVERLAY, 0, STATIC
        FUNCALL uartRxCB, sysPingReqRcvd
        LOCFRAME ISTACK, 0, STACK
        LOCFRAME PSTACK, 0, STACK
        LOCFRAME XSTACK, 138, STACK
        LOCFRAME IOVERLAY, 0, STATIC
        LOCFRAME DOVERLAY, 0, STATIC
        ARGFRAME ISTACK, 0, STACK
        ARGFRAME PSTACK, 0, STACK
        ARGFRAME XSTACK, 138, STACK
        ARGFRAME IOVERLAY, 0, STATIC
        ARGFRAME DOVERLAY, 0, STATIC
        REQUIRE ?V0
        REQUIRE ?V1
        MOV     A,#-0xa
        LCALL   ?BANKED_ENTER_XDATA
          CFI DPH0 load(1, XDATA, add(CFA_XSP16, literal(-1)))
          CFI DPL0 load(1, XDATA, add(CFA_XSP16, literal(-2)))
          CFI ?BRET_EXT load(1, XDATA, add(CFA_XSP16, literal(-3)))
          CFI ?RET_HIGH load(1, XDATA, add(CFA_XSP16, literal(-4)))
          CFI ?RET_LOW load(1, XDATA, add(CFA_XSP16, literal(-5)))
          CFI R7 load(1, XDATA, add(CFA_XSP16, literal(-6)))
          CFI V1 load(1, XDATA, add(CFA_XSP16, literal(-7)))
          CFI V0 load(1, XDATA, add(CFA_XSP16, literal(-8)))
          CFI VB load(1, XDATA, add(CFA_XSP16, literal(-9)))
          CFI R6 load(1, XDATA, add(CFA_XSP16, literal(-10)))
          CFI CFA_SP SP+0
          CFI CFA_XSP16 add(XSP16, 10)
        ; Saved register size: 10
        ; Auto size: 128
        MOV     A,#-0x80
        LCALL   ?ALLOC_XSTACK8
          CFI CFA_XSP16 add(XSP16, 138)
        MOV     A,R2
        MOV     R6,A
//  398   (void)port;
//  399 
//  400   uint8 pBuf[RX_BUF_LEN];
//  401   uint16 cmd;
//  402   uint16 len;
//  403 
//  404   if ( event != HAL_UART_TX_EMPTY )
        MOV     A,#0x10
        XRL     A,R6
        JZ      ??uartRxCB_0
//  405   {
//  406     // Read from UART
//  407     len = HalUARTRead( HAL_UART_PORT_0, pBuf, RX_BUF_LEN );
        ; Setup parameters for call to function HalUARTRead
        MOV     R4,#-0x80
        MOV     R5,#0x0
        MOV     R2,?XSP + 0
        MOV     R3,?XSP + 1
        MOV     R1,#0x0
        LCALL   `??HalUARTRead::?relay`; Banked call to: HalUARTRead
        MOV     ?V0,R2
        MOV     ?V1,R3
        MOV     R0,?V0
        MOV     R1,?V1
//  408 
//  409     if ( len > 0 )
        MOV     A,R0
        ORL     A,R1
        JZ      ??uartRxCB_0
//  410     {
//  411       cmd = BUILD_UINT16(pBuf[SYS_PING_CMD_OFFSET + 1], pBuf[SYS_PING_CMD_OFFSET]);
        MOV     A,#0x2
        LCALL   ?XSTACK_DISP0_8
        MOVX    A,@DPTR
        MOV     R2,A
        MOV     R3,#0x0
        MOV     A,#0x1
        LCALL   ?XSTACK_DISP0_8
        MOVX    A,@DPTR
        MOV     R0,A
        MOV     R1,#0x0
        CLR     A
        XCH     A,R0
        MOV     R1,A
        MOV     A,R2
        ADD     A,R0
        MOV     R0,A
        MOV     A,R3
        ADDC    A,R1
        MOV     R1,A
//  412 
//  413       if( (pBuf[FRAME_SOF_OFFSET] == CPT_SOP) && (cmd == SYS_PING_REQUEST) )
        MOV     DPL,?XSP + 0
        MOV     DPH,?XSP + 1
        MOVX    A,@DPTR
        XRL     A,#0xfe
        JNZ     ??uartRxCB_0
        MOV     A,#0x21
        XRL     A,R0
        JNZ     ??uartRxCB_1
        MOV     A,#0x0
        XRL     A,R1
??uartRxCB_1:
        JNZ     ??uartRxCB_0
//  414       {
//  415         sysPingReqRcvd();
        ; Setup parameters for call to function sysPingReqRcvd
        LCALL   `??sysPingReqRcvd::?relay`; Banked call to: sysPingReqRcvd
//  416       }
//  417     }
//  418   }
//  419 }
??uartRxCB_0:
        MOV     A,#-0x80
        LCALL   ?DEALLOC_XSTACK8
          CFI CFA_XSP16 add(XSP16, 10)
        MOV     R7,#0x2
        LJMP    ?BANKED_LEAVE_XDATA
          CFI R6 SameValue
          CFI VB SameValue
          CFI V0 SameValue
          CFI V1 SameValue
          CFI R7 SameValue
          CFI ?RET_LOW Frame(CFA_SP, 1)
          CFI ?RET_HIGH Frame(CFA_SP, 2)
          CFI ?BRET_EXT Frame(CFA_SP, 3)
          CFI DPL0 SameValue
          CFI DPH0 SameValue
          CFI CFA_SP SP+-3
          CFI CFA_XSP16 XSP16+0
          CFI EndBlock cfiBlock8
//  420 
//  421 /******************************************************************************
//  422  * @fn          sysPingReqRcvd
//  423  *
//  424  * @brief       Ping request received
//  425  *
//  426  * @param       none
//  427  *
//  428  * @return      none
//  429  */

        RSEG BANKED_CODE:CODE:NOROOT(0)
//  430 static void sysPingReqRcvd(void)
sysPingReqRcvd:
          CFI Block cfiBlock9 Using cfiCommon0
          CFI Function sysPingReqRcvd
        CODE
//  431 {
        FUNCALL sysPingReqRcvd, sysPingRsp
        LOCFRAME ISTACK, 2, STACK
        LOCFRAME PSTACK, 0, STACK
        LOCFRAME XSTACK, 0, STACK
        LOCFRAME IOVERLAY, 0, STATIC
        LOCFRAME DOVERLAY, 0, STATIC
        ARGFRAME ISTACK, 2, STACK
        ARGFRAME PSTACK, 0, STACK
        ARGFRAME XSTACK, 0, STACK
        ARGFRAME IOVERLAY, 0, STATIC
        ARGFRAME DOVERLAY, 0, STATIC
        PUSH    DPL
          CFI DPL0 Frame(CFA_SP, 4)
          CFI CFA_SP SP+-4
        PUSH    DPH
          CFI DPH0 Frame(CFA_SP, 5)
          CFI CFA_SP SP+-5
        ; Saved register size: 2
        ; Auto size: 0
//  432    sysPingRsp();
        ; Setup parameters for call to function sysPingRsp
        LCALL   `??sysPingRsp::?relay`; Banked call to: sysPingRsp
//  433 }
        POP     DPH
          CFI DPH0 SameValue
          CFI CFA_SP SP+-4
        POP     DPL
          CFI DPL0 SameValue
          CFI CFA_SP SP+-3
        LJMP    ?BRET
          CFI EndBlock cfiBlock9
//  434 
//  435 /******************************************************************************
//  436  * @fn          sysPingRsp
//  437  *
//  438  * @brief       Build and send Ping response
//  439  *
//  440  * @param       none
//  441  *
//  442  * @return      none
//  443  */

        RSEG BANKED_CODE:CODE:NOROOT(0)
//  444 static void sysPingRsp(void)
sysPingRsp:
          CFI Block cfiBlock10 Using cfiCommon0
          CFI Function sysPingRsp
        CODE
//  445 {
        FUNCALL sysPingRsp, calcFCS
        LOCFRAME ISTACK, 2, STACK
        LOCFRAME PSTACK, 0, STACK
        LOCFRAME XSTACK, 7, STACK
        LOCFRAME IOVERLAY, 0, STATIC
        LOCFRAME DOVERLAY, 0, STATIC
        ARGFRAME ISTACK, 2, STACK
        ARGFRAME PSTACK, 0, STACK
        ARGFRAME XSTACK, 7, STACK
        ARGFRAME IOVERLAY, 0, STATIC
        ARGFRAME DOVERLAY, 0, STATIC
        FUNCALL sysPingRsp, HalUARTWrite
        LOCFRAME ISTACK, 2, STACK
        LOCFRAME PSTACK, 0, STACK
        LOCFRAME XSTACK, 7, STACK
        LOCFRAME IOVERLAY, 0, STATIC
        LOCFRAME DOVERLAY, 0, STATIC
        ARGFRAME ISTACK, 2, STACK
        ARGFRAME PSTACK, 0, STACK
        ARGFRAME XSTACK, 7, STACK
        ARGFRAME IOVERLAY, 0, STATIC
        ARGFRAME DOVERLAY, 0, STATIC
        PUSH    DPL
          CFI DPL0 Frame(CFA_SP, 4)
          CFI CFA_SP SP+-4
        PUSH    DPH
          CFI DPH0 Frame(CFA_SP, 5)
          CFI CFA_SP SP+-5
        ; Saved register size: 2
        ; Auto size: 7
        MOV     A,#-0x7
        LCALL   ?ALLOC_XSTACK8
          CFI CFA_XSP16 add(XSP16, 7)
//  446   uint8 pBuf[SYS_PING_RSP_LENGTH];
//  447 
//  448   // Start of Frame Delimiter
//  449   pBuf[FRAME_SOF_OFFSET] = CPT_SOP;
        MOV     DPL,?XSP + 0
        MOV     DPH,?XSP + 1
        MOV     A,#-0x2
        MOVX    @DPTR,A
//  450 
//  451   // Length
//  452   pBuf[FRAME_LENGTH_OFFSET] = 2;
        MOV     A,#0x1
        LCALL   ?XSTACK_DISP0_8
        MOV     A,#0x2
        MOVX    @DPTR,A
//  453 
//  454   // Command type
//  455   pBuf[FRAME_CMD0_OFFSET] = LO_UINT16(SYS_PING_RESPONSE);
        MOV     A,#0x2
        LCALL   ?XSTACK_DISP0_8
        MOV     A,#0x61
        MOVX    @DPTR,A
//  456   pBuf[FRAME_CMD1_OFFSET] = HI_UINT16(SYS_PING_RESPONSE);
        MOV     A,#0x3
        LCALL   ?XSTACK_DISP0_8
        MOV     A,#0x1
        MOVX    @DPTR,A
//  457 
//  458   // Stack profile
//  459   pBuf[FRAME_DATA_OFFSET] = LO_UINT16(STACK_PROFILE);
        MOV     A,#0x4
        LCALL   ?XSTACK_DISP0_8
        MOV     A,#0x41
        MOVX    @DPTR,A
//  460   pBuf[FRAME_DATA_OFFSET + 1] = HI_UINT16(STACK_PROFILE);
        MOV     A,#0x5
        LCALL   ?XSTACK_DISP0_8
        MOV     A,#0x0
        MOVX    @DPTR,A
//  461 
//  462   // Frame Check Sequence
//  463   pBuf[SYS_PING_RSP_LENGTH - 1] = calcFCS(&pBuf[FRAME_LENGTH_OFFSET], (SYS_PING_RSP_LENGTH - 2));
        ; Setup parameters for call to function calcFCS
        MOV     R1,#0x5
        MOV     A,#0x1
        LCALL   ?XSTACK_DISP0_8
        MOV     R2,DPL
        MOV     R3,DPH
        LCALL   `??calcFCS::?relay`  ; Banked call to: calcFCS
        MOV     A,R1
        PUSH    A
          CFI CFA_SP SP+-6
        MOV     A,#0x6
        LCALL   ?XSTACK_DISP0_8
        POP     A
          CFI CFA_SP SP+-5
        MOVX    @DPTR,A
//  464 
//  465   // Write frame to UART
//  466   HalUARTWrite(HAL_UART_PORT_0,pBuf, SYS_PING_RSP_LENGTH);
        ; Setup parameters for call to function HalUARTWrite
        MOV     R4,#0x7
        MOV     R5,#0x0
        MOV     R2,?XSP + 0
        MOV     R3,?XSP + 1
        MOV     R1,#0x0
        LCALL   `??HalUARTWrite::?relay`; Banked call to: HalUARTWrite
//  467 }
        MOV     A,#0x7
        LCALL   ?DEALLOC_XSTACK8
          CFI CFA_XSP16 XSP16+0
        POP     DPH
          CFI DPH0 SameValue
          CFI CFA_SP SP+-4
        POP     DPL
          CFI DPL0 SameValue
          CFI CFA_SP SP+-3
        LJMP    ?BRET
          CFI EndBlock cfiBlock10
//  468 
//  469 /******************************************************************************
//  470  * @fn          sendGtwReport
//  471  *
//  472  * @brief       Build and send gateway report
//  473  *
//  474  * @param       none
//  475  *
//  476  * @return      none
//  477  */

        RSEG BANKED_CODE:CODE:NOROOT(0)
//  478 static void sendGtwReport(gtwData_t *gtwData)
sendGtwReport:
          CFI Block cfiBlock11 Using cfiCommon0
          CFI Function sendGtwReport
        CODE
//  479 {
        FUNCALL sendGtwReport, calcFCS
        LOCFRAME ISTACK, 2, STACK
        LOCFRAME PSTACK, 0, STACK
        LOCFRAME XSTACK, 15, STACK
        LOCFRAME IOVERLAY, 0, STATIC
        LOCFRAME DOVERLAY, 0, STATIC
        ARGFRAME ISTACK, 2, STACK
        ARGFRAME PSTACK, 0, STACK
        ARGFRAME XSTACK, 15, STACK
        ARGFRAME IOVERLAY, 0, STATIC
        ARGFRAME DOVERLAY, 0, STATIC
        FUNCALL sendGtwReport, HalUARTWrite
        LOCFRAME ISTACK, 2, STACK
        LOCFRAME PSTACK, 0, STACK
        LOCFRAME XSTACK, 15, STACK
        LOCFRAME IOVERLAY, 0, STATIC
        LOCFRAME DOVERLAY, 0, STATIC
        ARGFRAME ISTACK, 2, STACK
        ARGFRAME PSTACK, 0, STACK
        ARGFRAME XSTACK, 15, STACK
        ARGFRAME IOVERLAY, 0, STATIC
        ARGFRAME DOVERLAY, 0, STATIC
        PUSH    DPL
          CFI DPL0 Frame(CFA_SP, 4)
          CFI CFA_SP SP+-4
        PUSH    DPH
          CFI DPH0 Frame(CFA_SP, 5)
          CFI CFA_SP SP+-5
        ; Saved register size: 2
        ; Auto size: 15
        MOV     A,#-0xf
        LCALL   ?ALLOC_XSTACK8
          CFI CFA_XSP16 add(XSP16, 15)
//  480   uint8 pFrame[ZB_RECV_LENGTH];
//  481 
//  482   // Start of Frame Delimiter
//  483   pFrame[FRAME_SOF_OFFSET] = CPT_SOP; // Start of Frame Delimiter
        MOV     DPL,?XSP + 0
        MOV     DPH,?XSP + 1
        MOV     A,#-0x2
        MOVX    @DPTR,A
//  484 
//  485   // Length
//  486   pFrame[FRAME_LENGTH_OFFSET] = 10;
        MOV     A,#0x1
        LCALL   ?XSTACK_DISP0_8
        MOV     A,#0xa
        MOVX    @DPTR,A
//  487 
//  488   // Command type
//  489   pFrame[FRAME_CMD0_OFFSET] = LO_UINT16(ZB_RECEIVE_DATA_INDICATION);
        MOV     A,#0x2
        LCALL   ?XSTACK_DISP0_8
        MOV     A,#0x46
        MOVX    @DPTR,A
//  490   pFrame[FRAME_CMD1_OFFSET] = HI_UINT16(ZB_RECEIVE_DATA_INDICATION);
        MOV     A,#0x3
        LCALL   ?XSTACK_DISP0_8
        MOV     A,#-0x79
        MOVX    @DPTR,A
//  491 
//  492   // Source address
//  493   pFrame[FRAME_DATA_OFFSET + ZB_RECV_SRC_OFFSET] = LO_UINT16(gtwData->source);
        MOV     DPL,R2
        MOV     DPH,R3
        MOVX    A,@DPTR
        MOV     R0,A
        INC     DPTR
        MOVX    A,@DPTR
        MOV     R1,A
        MOV     A,R0
        PUSH    A
          CFI CFA_SP SP+-6
        MOV     A,#0x4
        LCALL   ?XSTACK_DISP0_8
        POP     A
          CFI CFA_SP SP+-5
        MOVX    @DPTR,A
//  494   pFrame[FRAME_DATA_OFFSET + ZB_RECV_SRC_OFFSET+ 1] = HI_UINT16(gtwData->source);
        MOV     DPL,R2
        MOV     DPH,R3
        MOVX    A,@DPTR
        MOV     R0,A
        INC     DPTR
        MOVX    A,@DPTR
        MOV     R1,A
        CLR     A
        XCH     A,R1
        MOV     R0,A
        MOV     A,R0
        PUSH    A
          CFI CFA_SP SP+-6
        MOV     A,#0x5
        LCALL   ?XSTACK_DISP0_8
        POP     A
          CFI CFA_SP SP+-5
        MOVX    @DPTR,A
//  495 
//  496   // Command ID
//  497   pFrame[FRAME_DATA_OFFSET + ZB_RECV_CMD_OFFSET] = LO_UINT16(SENSOR_REPORT_CMD_ID);
        MOV     A,#0x6
        LCALL   ?XSTACK_DISP0_8
        MOV     A,#0x2
        MOVX    @DPTR,A
//  498   pFrame[FRAME_DATA_OFFSET + ZB_RECV_CMD_OFFSET+ 1] = HI_UINT16(SENSOR_REPORT_CMD_ID);
        MOV     A,#0x7
        LCALL   ?XSTACK_DISP0_8
        MOV     A,#0x0
        MOVX    @DPTR,A
//  499 
//  500   // Length
//  501   pFrame[FRAME_DATA_OFFSET + ZB_RECV_LEN_OFFSET] = LO_UINT16(4);
        MOV     A,#0x8
        LCALL   ?XSTACK_DISP0_8
        MOV     A,#0x4
        MOVX    @DPTR,A
//  502   pFrame[FRAME_DATA_OFFSET + ZB_RECV_LEN_OFFSET+ 1] = HI_UINT16(4);
        MOV     A,#0x9
        LCALL   ?XSTACK_DISP0_8
        MOV     A,#0x0
        MOVX    @DPTR,A
//  503 
//  504   // Data
//  505   pFrame[FRAME_DATA_OFFSET + ZB_RECV_DATA_OFFSET] = gtwData->temp;
        MOV     DPL,R2
        MOV     DPH,R3
        INC     DPTR
        INC     DPTR
        INC     DPTR
        INC     DPTR
        MOVX    A,@DPTR
        PUSH    A
          CFI CFA_SP SP+-6
        MOV     A,#0xa
        LCALL   ?XSTACK_DISP0_8
        POP     A
          CFI CFA_SP SP+-5
        MOVX    @DPTR,A
//  506   pFrame[FRAME_DATA_OFFSET + ZB_RECV_DATA_OFFSET+ 1] = gtwData->voltage;
        MOV     DPL,R2
        MOV     DPH,R3
        INC     DPTR
        INC     DPTR
        INC     DPTR
        INC     DPTR
        INC     DPTR
        MOVX    A,@DPTR
        PUSH    A
          CFI CFA_SP SP+-6
        MOV     A,#0xb
        LCALL   ?XSTACK_DISP0_8
        POP     A
          CFI CFA_SP SP+-5
        MOVX    @DPTR,A
//  507   pFrame[FRAME_DATA_OFFSET + ZB_RECV_DATA_OFFSET+ 2] = LO_UINT16(gtwData->parent);
        MOV     DPL,R2
        MOV     DPH,R3
        INC     DPTR
        INC     DPTR
        MOVX    A,@DPTR
        MOV     R0,A
        INC     DPTR
        MOVX    A,@DPTR
        MOV     R1,A
        MOV     A,R0
        PUSH    A
          CFI CFA_SP SP+-6
        MOV     A,#0xc
        LCALL   ?XSTACK_DISP0_8
        POP     A
          CFI CFA_SP SP+-5
        MOVX    @DPTR,A
//  508   pFrame[FRAME_DATA_OFFSET + ZB_RECV_DATA_OFFSET+ 3] = HI_UINT16(gtwData->parent);
        MOV     DPL,R2
        MOV     DPH,R3
        INC     DPTR
        INC     DPTR
        MOVX    A,@DPTR
        MOV     R0,A
        INC     DPTR
        MOVX    A,@DPTR
        MOV     R1,A
        CLR     A
        XCH     A,R1
        MOV     R0,A
        MOV     A,R0
        PUSH    A
          CFI CFA_SP SP+-6
        MOV     A,#0xd
        LCALL   ?XSTACK_DISP0_8
        POP     A
          CFI CFA_SP SP+-5
        MOVX    @DPTR,A
//  509 
//  510   // Frame Check Sequence
//  511   pFrame[ZB_RECV_LENGTH - 1] = calcFCS(&pFrame[FRAME_LENGTH_OFFSET], (ZB_RECV_LENGTH - 2) );
        ; Setup parameters for call to function calcFCS
        MOV     R1,#0xd
        MOV     A,#0x1
        LCALL   ?XSTACK_DISP0_8
        MOV     R2,DPL
        MOV     R3,DPH
        LCALL   `??calcFCS::?relay`  ; Banked call to: calcFCS
        MOV     A,R1
        PUSH    A
          CFI CFA_SP SP+-6
        MOV     A,#0xe
        LCALL   ?XSTACK_DISP0_8
        POP     A
          CFI CFA_SP SP+-5
        MOVX    @DPTR,A
//  512 
//  513   // Write report to UART
//  514   HalUARTWrite(HAL_UART_PORT_0,pFrame, ZB_RECV_LENGTH);
        ; Setup parameters for call to function HalUARTWrite
        MOV     R4,#0xf
        MOV     R5,#0x0
        MOV     R2,?XSP + 0
        MOV     R3,?XSP + 1
        MOV     R1,#0x0
        LCALL   `??HalUARTWrite::?relay`; Banked call to: HalUARTWrite
//  515 }
        MOV     A,#0xf
        LCALL   ?DEALLOC_XSTACK8
          CFI CFA_XSP16 XSP16+0
        POP     DPH
          CFI DPH0 SameValue
          CFI CFA_SP SP+-4
        POP     DPL
          CFI DPL0 SameValue
          CFI CFA_SP SP+-3
        LJMP    ?BRET
          CFI EndBlock cfiBlock11
//  516 
//  517 /******************************************************************************
//  518  * @fn          calcFCS
//  519  *
//  520  * @brief       This function calculates the FCS checksum for the serial message
//  521  *
//  522  * @param       pBuf - Pointer to the end of a buffer to calculate the FCS.
//  523  *              len - Length of the pBuf.
//  524  *
//  525  * @return      The calculated FCS.
//  526  ******************************************************************************
//  527  */

        RSEG BANKED_CODE:CODE:NOROOT(0)
//  528 static uint8 calcFCS(uint8 *pBuf, uint8 len)
calcFCS:
          CFI Block cfiBlock12 Using cfiCommon0
          CFI Function calcFCS
        CODE
//  529 {
        PUSH    DPL
          CFI DPL0 Frame(CFA_SP, 4)
          CFI CFA_SP SP+-4
        PUSH    DPH
          CFI DPH0 Frame(CFA_SP, 5)
          CFI CFA_SP SP+-5
        ; Saved register size: 2
        ; Auto size: 0
        MOV     A,R1
        MOV     R0,A
//  530   uint8 rtrn = 0;
        MOV     R1,#0x0
        SJMP    ??calcFCS_0
//  531 
//  532   while ( len-- )
//  533   {
//  534     rtrn ^= *pBuf++;
??calcFCS_1:
        MOV     DPL,R2
        MOV     DPH,R3
        MOVX    A,@DPTR
        XCH     A,R1
        XRL     A,R1
        XCH     A,R1
        MOV     DPL,R2
        MOV     DPH,R3
        INC     DPTR
        MOV     R2,DPL
        MOV     R3,DPH
//  535   }
??calcFCS_0:
        MOV     A,R0
        MOV     R4,A
        MOV     A,#-0x1
        ADD     A,R4
        MOV     R0,A
        MOV     A,R4
        JNZ     ??calcFCS_1
//  536 
//  537   return rtrn;
        POP     DPH
          CFI DPH0 SameValue
          CFI CFA_SP SP+-4
        POP     DPL
          CFI DPL0 SameValue
          CFI CFA_SP SP+-3
        LJMP    ?BRET
//  538 }
          CFI EndBlock cfiBlock12

        RSEG XDATA_ID:CODE:NOROOT(0)
`?<Initializer for myStartRetryDelay>`:
        DATA8
        DB 10

        RSEG BANK_RELAYS:CODE:REORDER:NOROOT(0)
`??zb_HandleOsalEvent::?relay`:
        CODE
        LCALL   ?BDISPATCH
        DATA24
        DC24    zb_HandleOsalEvent

        RSEG BANK_RELAYS:CODE:REORDER:NOROOT(0)
`??zb_HandleKeys::?relay`:
        CODE
        LCALL   ?BDISPATCH
        DATA24
        DC24    zb_HandleKeys

        RSEG BANK_RELAYS:CODE:REORDER:NOROOT(0)
`??zb_StartConfirm::?relay`:
        CODE
        LCALL   ?BDISPATCH
        DATA24
        DC24    zb_StartConfirm

        RSEG BANK_RELAYS:CODE:REORDER:NOROOT(0)
`??zb_SendDataConfirm::?relay`:
        CODE
        LCALL   ?BDISPATCH
        DATA24
        DC24    zb_SendDataConfirm

        RSEG BANK_RELAYS:CODE:REORDER:NOROOT(0)
`??zb_BindConfirm::?relay`:
        CODE
        LCALL   ?BDISPATCH
        DATA24
        DC24    zb_BindConfirm

        RSEG BANK_RELAYS:CODE:REORDER:NOROOT(0)
`??zb_AllowBindConfirm::?relay`:
        CODE
        LCALL   ?BDISPATCH
        DATA24
        DC24    zb_AllowBindConfirm

        RSEG BANK_RELAYS:CODE:REORDER:NOROOT(0)
`??zb_FindDeviceConfirm::?relay`:
        CODE
        LCALL   ?BDISPATCH
        DATA24
        DC24    zb_FindDeviceConfirm

        RSEG BANK_RELAYS:CODE:REORDER:NOROOT(0)
`??zb_ReceiveDataIndication::?relay`:
        CODE
        LCALL   ?BDISPATCH
        DATA24
        DC24    zb_ReceiveDataIndication

        RSEG BANK_RELAYS:CODE:REORDER:NOROOT(0)
`??uartRxCB::?relay`:
        CODE
        LCALL   ?BDISPATCH
        DATA24
        DC24    uartRxCB

        RSEG BANK_RELAYS:CODE:REORDER:NOROOT(0)
`??sysPingReqRcvd::?relay`:
        CODE
        LCALL   ?BDISPATCH
        DATA24
        DC24    sysPingReqRcvd

        RSEG BANK_RELAYS:CODE:REORDER:NOROOT(0)
`??sysPingRsp::?relay`:
        CODE
        LCALL   ?BDISPATCH
        DATA24
        DC24    sysPingRsp

        RSEG BANK_RELAYS:CODE:REORDER:NOROOT(0)
`??sendGtwReport::?relay`:
        CODE
        LCALL   ?BDISPATCH
        DATA24
        DC24    sendGtwReport

        RSEG BANK_RELAYS:CODE:REORDER:NOROOT(0)
`??calcFCS::?relay`:
        CODE
        LCALL   ?BDISPATCH
        DATA24
        DC24    calcFCS

        END
// 
// 879 bytes in segment BANKED_CODE
//  78 bytes in segment BANK_RELAYS
//   7 bytes in segment SFR_AN
//   1 byte  in segment XDATA_I
//   1 byte  in segment XDATA_ID
//  14 bytes in segment XDATA_ROM_C
//   8 bytes in segment XDATA_Z
// 
// 958 bytes of CODE  memory
//  14 bytes of CONST memory
//   0 bytes of DATA  memory (+ 7 bytes shared)
//   9 bytes of XDATA memory
//
//Errors: none
//Warnings: 1
